target datalayout = "e-m:e-p270:32:32-p271:32:32-p272:64:64-i64:64-i128:128-f80:128-n8:16:32:64-S128"
target triple = "x86_64-pc-linux-gnu"

@interned_string_request_handler = internal global ptr @zend_new_interned_string_request, align 8
@interned_string_init_request_handler = internal global ptr @zend_string_init_interned_request, align 8
@interned_string_init_existing_request_handler = internal global ptr @zend_string_init_existing_interned_request, align 8
@zend_new_interned_string = global ptr null, align 8
@zend_string_init_interned = global ptr null, align 8
@zend_string_init_existing_interned = global ptr null, align 8

; Function Attrs: nounwind uwtable
define void @zend_interned_strings_switch_storage(i1 noundef zeroext %0) #0 {
  %2 = alloca i8, align 1
  %3 = zext i1 %0 to i8
  store i8 %3, ptr %2, align 1
  %4 = load i8, ptr %2, align 1
  %5 = trunc i8 %4 to i1
  br i1 %5, label %6, label %10

6:                                                ; preds = %1
  %7 = load ptr, ptr @interned_string_request_handler, align 8
  store ptr %7, ptr @zend_new_interned_string, align 8
  %8 = load ptr, ptr @interned_string_init_request_handler, align 8
  store ptr %8, ptr @zend_string_init_interned, align 8
  %9 = load ptr, ptr @interned_string_init_existing_request_handler, align 8
  store ptr %9, ptr @zend_string_init_existing_interned, align 8
  br label %11

10:                                               ; preds = %1
  store ptr @zend_new_interned_string_permanent, ptr @zend_new_interned_string, align 8
  store ptr @zend_string_init_interned_permanent, ptr @zend_string_init_interned, align 8
  store ptr @zend_string_init_existing_interned_permanent, ptr @zend_string_init_existing_interned, align 8
  br label %11

11:                                               ; preds = %10, %6
  ret void
}