; Function Attrs: mustprogress nofree norecurse nosync nounwind willreturn memory(readwrite, argmem: none, inaccessiblemem: none) uwtable
define void @zend_interned_strings_switch_storage(i1 noundef zeroext %0) local_unnamed_addr #9 {
  %2 = load ptr, ptr @interned_string_request_handler, align 8
  %3 = load ptr, ptr @interned_string_init_request_handler, align 8
  %4 = load ptr, ptr @interned_string_init_existing_request_handler, align 8
  %zend_new_interned_string_permanent.sink = select i1 %0, ptr %2, ptr @zend_new_interned_string_permanent
  %zend_string_init_interned_permanent.sink = select i1 %0, ptr %3, ptr @zend_string_init_interned_permanent
  %storemerge = select i1 %0, ptr %4, ptr @zend_string_init_existing_interned_permanent
  store ptr %zend_new_interned_string_permanent.sink, ptr @zend_new_interned_string, align 8
  store ptr %zend_string_init_interned_permanent.sink, ptr @zend_string_init_interned, align 8
  store ptr %storemerge, ptr @zend_string_init_existing_interned, align 8
  ret void
}